; Function Attrs: mustprogress nounwind uwtable
define hidden noundef ptr @_ZN7Threads25owning_thread_from_objectEP11ThreadsListP7oopDesc(ptr nocapture noundef readonly %0, ptr noundef readnone %1) local_unnamed_addr #0 align 2 {
  %3 = getelementptr inbounds i8, ptr %0, i64 16
  %4 = load ptr, ptr %3, align 8
  %5 = getelementptr inbounds i8, ptr %0, i64 4
  %6 = load i32, ptr %5, align 4
  %7 = zext i32 %6 to i64
  %8 = getelementptr inbounds ptr, ptr %4, i64 %7
  %.not19 = icmp eq i32 %6, 0
  br i1 %.not19, label %_ZNK9LockStack8containsEP7oopDesc.exit.thread, label %.lr.ph

.lr.ph:                                           ; preds = %2
  %9 = load i32, ptr @_ZN9LockStack22lock_stack_base_offsetE, align 4
  br label %10

10:                                               ; preds = %.lr.ph, %_ZNK9LockStack8containsEP7oopDesc.exit
  %.sroa.0.020 = phi ptr [ %4, %.lr.ph ], [ %32, %_ZNK9LockStack8containsEP7oopDesc.exit ]
  %11 = load i64, ptr @PrefetchScanIntervalInBytes, align 8
  tail call void asm sideeffect "prefetcht0 ($0,$1,1)", "r,r,~{dirflag},~{fpsr},~{flags}"(ptr %.sroa.0.020, i64 %11) #15, !srcloc !9
  %12 = load ptr, ptr %.sroa.0.020, align 8
  %13 = tail call noundef ptr @_ZN17StackWatermarkSet4headEP10JavaThread(ptr noundef %12) #15
  %.not7.i = icmp eq ptr %13, null
  br i1 %.not7.i, label %_ZN17StackWatermarkSet3getEP10JavaThread18StackWatermarkKind.exit.thread, label %.lr.ph.i

.lr.ph.i:                                         ; preds = %10, %17
  %.08.i = phi ptr [ %19, %17 ], [ %13, %10 ]
  %14 = getelementptr inbounds i8, ptr %.08.i, i64 152
  %15 = load i32, ptr %14, align 8
  %16 = icmp eq i32 %15, 0
  br i1 %16, label %_ZN17StackWatermarkSet3getEP10JavaThread18StackWatermarkKind.exit, label %17

17:                                               ; preds = %.lr.ph.i
  %18 = getelementptr inbounds i8, ptr %.08.i, i64 24
  %19 = load ptr, ptr %18, align 8
  %.not.i = icmp eq ptr %19, null
  br i1 %.not.i, label %_ZN17StackWatermarkSet3getEP10JavaThread18StackWatermarkKind.exit.thread, label %.lr.ph.i, !llvm.loop !18

_ZN17StackWatermarkSet3getEP10JavaThread18StackWatermarkKind.exit: ; preds = %.lr.ph.i
  tail call void @_ZN14StackWatermark16start_processingEv(ptr noundef nonnull align 8 dereferenceable(176) %.08.i) #15
  br label %_ZN17StackWatermarkSet3getEP10JavaThread18StackWatermarkKind.exit.thread

_ZN17StackWatermarkSet3getEP10JavaThread18StackWatermarkKind.exit.thread: ; preds = %17, %10, %_ZN17StackWatermarkSet3getEP10JavaThread18StackWatermarkKind.exit
  %20 = getelementptr inbounds i8, ptr %12, i64 1720
  %21 = load i32, ptr %20, align 8
  %22 = sub i32 %21, %9
  %23 = getelementptr inbounds i8, ptr %12, i64 1736
  %24 = lshr i32 %22, 3
  %25 = zext nneg i32 %24 to i64
  br label %26

26:                                               ; preds = %28, %_ZN17StackWatermarkSet3getEP10JavaThread18StackWatermarkKind.exit.thread
  %indvars.iv.i = phi i64 [ %indvars.iv.next.i, %28 ], [ %25, %_ZN17StackWatermarkSet3getEP10JavaThread18StackWatermarkKind.exit.thread ]
  %27 = icmp sgt i64 %indvars.iv.i, 0
  br i1 %27, label %28, label %_ZNK9LockStack8containsEP7oopDesc.exit

28:                                               ; preds = %26
  %indvars.iv.next.i = add nsw i64 %indvars.iv.i, -1
  %29 = getelementptr inbounds [8 x ptr], ptr %23, i64 0, i64 %indvars.iv.next.i
  %30 = load ptr, ptr %29, align 8
  %31 = icmp eq ptr %30, %1
  br i1 %31, label %_ZNK9LockStack8containsEP7oopDesc.exit.thread, label %26, !llvm.loop !19

_ZNK9LockStack8containsEP7oopDesc.exit:           ; preds = %26
  %32 = getelementptr inbounds i8, ptr %.sroa.0.020, i64 8
  %.not = icmp eq ptr %32, %8
  br i1 %.not, label %_ZNK9LockStack8containsEP7oopDesc.exit.thread, label %10

_ZNK9LockStack8containsEP7oopDesc.exit.thread:    ; preds = %_ZNK9LockStack8containsEP7oopDesc.exit, %28, %2
  %.0 = phi ptr [ null, %2 ], [ %12, %28 ], [ null, %_ZNK9LockStack8containsEP7oopDesc.exit ]
  ret ptr %.0
}